target datalayout = "e-m:e-p270:32:32-p271:32:32-p272:64:64-i64:64-i128:128-f80:128-n8:16:32:64-S128"
target triple = "x86_64-pc-linux-gnu"

%struct.verify_options_st = type { i32, i32, i32, i32 }
%struct.linger = type { i32, i32 }

@bio_err = external global ptr, align 8
@verify_args = external global %struct.verify_options_st, align 4
@.str.71 = private unnamed_addr constant [7 x i8] c"ERROR\0A\00", align 1
@.str.72 = private unnamed_addr constant [17 x i8] c"verify error:%s\0A\00", align 1

; Function Attrs: nounwind uwtable
define internal ptr @doConnection(ptr noundef %0, ptr noundef %1, ptr noundef %2) #0 {
  %4 = alloca ptr, align 8
  %5 = alloca ptr, align 8
  %6 = alloca ptr, align 8
  %7 = alloca ptr, align 8
  %8 = alloca ptr, align 8
  %9 = alloca ptr, align 8
  %10 = alloca i32, align 4
  %11 = alloca i32, align 4
  %12 = alloca %struct.linger, align 4
  %13 = alloca i32, align 4
  store ptr %0, ptr %5, align 8, !tbaa !11
  store ptr %1, ptr %6, align 8, !tbaa !17
  store ptr %2, ptr %7, align 8, !tbaa !13
  call void @llvm.lifetime.start.p0(i64 8, ptr %8) #5
  call void @llvm.lifetime.start.p0(i64 8, ptr %9) #5
  call void @llvm.lifetime.start.p0(i64 4, ptr %10) #5
  %14 = call ptr @BIO_s_connect()
  %15 = call ptr @BIO_new(ptr noundef %14)
  store ptr %15, ptr %8, align 8, !tbaa !23
  %16 = icmp eq ptr %15, null
  br i1 %16, label %17, label %18

17:                                               ; preds = %3
  store ptr null, ptr %4, align 8
  store i32 1, ptr %11, align 4
  br label %84

18:                                               ; preds = %3
  %19 = load ptr, ptr %8, align 8, !tbaa !23
  %20 = load ptr, ptr %6, align 8, !tbaa !17
  %21 = call i64 @BIO_ctrl(ptr noundef %19, i32 noundef 100, i64 noundef 0, ptr noundef %20)
  %22 = icmp sle i64 %21, 0
  br i1 %22, label %27, label %23

23:                                               ; preds = %18
  %24 = load ptr, ptr %8, align 8, !tbaa !23
  %25 = call i64 @BIO_ctrl(ptr noundef %24, i32 noundef 155, i64 noundef 16, ptr noundef null)
  %26 = icmp sle i64 %25, 0
  br i1 %26, label %27, label %30

27:                                               ; preds = %23, %18
  %28 = load ptr, ptr %8, align 8, !tbaa !23
  %29 = call i32 @BIO_free(ptr noundef %28)
  store ptr null, ptr %4, align 8
  store i32 1, ptr %11, align 4
  br label %84

30:                                               ; preds = %23
  %31 = load ptr, ptr %5, align 8, !tbaa !11
  %32 = icmp eq ptr %31, null
  br i1 %32, label %33, label %42

33:                                               ; preds = %30
  %34 = load ptr, ptr %7, align 8, !tbaa !13
  %35 = call ptr @SSL_new(ptr noundef %34)
  store ptr %35, ptr %9, align 8, !tbaa !11
  %36 = load ptr, ptr %9, align 8, !tbaa !11
  %37 = icmp eq ptr %36, null
  br i1 %37, label %38, label %41

38:                                               ; preds = %33
  %39 = load ptr, ptr %8, align 8, !tbaa !23
  %40 = call i32 @BIO_free(ptr noundef %39)
  store ptr null, ptr %4, align 8
  store i32 1, ptr %11, align 4
  br label %84

41:                                               ; preds = %33
  br label %45

42:                                               ; preds = %30
  %43 = load ptr, ptr %5, align 8, !tbaa !11
  store ptr %43, ptr %9, align 8, !tbaa !11
  %44 = load ptr, ptr %9, align 8, !tbaa !11
  call void @SSL_set_connect_state(ptr noundef %44)
  br label %45

45:                                               ; preds = %42, %41
  %46 = load ptr, ptr %9, align 8, !tbaa !11
  %47 = load ptr, ptr %8, align 8, !tbaa !23
  %48 = load ptr, ptr %8, align 8, !tbaa !23
  call void @SSL_set_bio(ptr noundef %46, ptr noundef %47, ptr noundef %48)
  %49 = load ptr, ptr %9, align 8, !tbaa !11
  %50 = call i32 @SSL_connect(ptr noundef %49)
  store i32 %50, ptr %10, align 4, !tbaa !4
  %51 = load i32, ptr %10, align 4, !tbaa !4
  %52 = icmp sle i32 %51, 0
  br i1 %52, label %53, label %72

53:                                               ; preds = %45
  %54 = load ptr, ptr @bio_err, align 8, !tbaa !23
  %55 = call i32 (ptr, ptr, ...) @BIO_printf(ptr noundef %54, ptr noundef @.str.71)
  %56 = load i32, ptr getelementptr inbounds nuw (%struct.verify_options_st, ptr @verify_args, i32 0, i32 2), align 4, !tbaa !34
  %57 = icmp ne i32 %56, 0
  br i1 %57, label %58, label %64

58:                                               ; preds = %53
  %59 = load ptr, ptr @bio_err, align 8, !tbaa !23
  %60 = load i32, ptr getelementptr inbounds nuw (%struct.verify_options_st, ptr @verify_args, i32 0, i32 2), align 4, !tbaa !34
  %61 = sext i32 %60 to i64
  %62 = call ptr @X509_verify_cert_error_string(i64 noundef %61)
  %63 = call i32 (ptr, ptr, ...) @BIO_printf(ptr noundef %59, ptr noundef @.str.72, ptr noundef %62)
  br label %66

64:                                               ; preds = %53
  %65 = load ptr, ptr @bio_err, align 8, !tbaa !23
  call void @ERR_print_errors(ptr noundef %65)
  br label %66

66:                                               ; preds = %64, %58
  %67 = load ptr, ptr %5, align 8, !tbaa !11
  %68 = icmp eq ptr %67, null
  br i1 %68, label %69, label %71

69:                                               ; preds = %66
  %70 = load ptr, ptr %9, align 8, !tbaa !11
  call void @SSL_free(ptr noundef %70)
  br label %71

71:                                               ; preds = %69, %66
  store ptr null, ptr %4, align 8
  store i32 1, ptr %11, align 4
  br label %84

72:                                               ; preds = %45
  call void @llvm.lifetime.start.p0(i64 8, ptr %12) #5
  call void @llvm.lifetime.start.p0(i64 4, ptr %13) #5
  %73 = getelementptr inbounds nuw %struct.linger, ptr %12, i32 0, i32 0
  store i32 1, ptr %73, align 4, !tbaa !35
  %74 = getelementptr inbounds nuw %struct.linger, ptr %12, i32 0, i32 1
  store i32 0, ptr %74, align 4, !tbaa !37
  %75 = load ptr, ptr %9, align 8, !tbaa !11
  %76 = call i32 @SSL_get_fd(ptr noundef %75)
  store i32 %76, ptr %13, align 4, !tbaa !4
  %77 = load i32, ptr %13, align 4, !tbaa !4
  %78 = icmp sge i32 %77, 0
  br i1 %78, label %79, label %82

79:                                               ; preds = %72
  %80 = load i32, ptr %13, align 4, !tbaa !4
  %81 = call i32 @setsockopt(i32 noundef %80, i32 noundef 1, i32 noundef 13, ptr noundef %12, i32 noundef 8) #5
  br label %82

82:                                               ; preds = %79, %72
  call void @llvm.lifetime.end.p0(i64 4, ptr %13) #5
  call void @llvm.lifetime.end.p0(i64 8, ptr %12) #5
  %83 = load ptr, ptr %9, align 8, !tbaa !11
  store ptr %83, ptr %4, align 8
  store i32 1, ptr %11, align 4
  br label %84

84:                                               ; preds = %82, %71, %38, %27, %17
  call void @llvm.lifetime.end.p0(i64 4, ptr %10) #5
  call void @llvm.lifetime.end.p0(i64 8, ptr %9) #5
  call void @llvm.lifetime.end.p0(i64 8, ptr %8) #5
  %85 = load ptr, ptr %4, align 8
  ret ptr %85
}