; Function Attrs: nounwind uwtable
define internal fastcc noundef ptr @doConnection(ptr noundef %0, ptr noundef %1, ptr noundef nonnull %2) unnamed_addr #0 {
  %4 = alloca %struct.linger, align 4
  %5 = tail call ptr @BIO_s_connect() #8
  %6 = tail call ptr @BIO_new(ptr noundef %5) #8
  %7 = icmp eq ptr %6, null
  br i1 %7, label %46, label %8

8:                                                ; preds = %3
  %9 = tail call i64 @BIO_ctrl(ptr noundef nonnull %6, i32 noundef 100, i64 noundef 0, ptr noundef %1) #8
  %10 = icmp slt i64 %9, 1
  br i1 %10, label %14, label %11

11:                                               ; preds = %8
  %12 = tail call i64 @BIO_ctrl(ptr noundef nonnull %6, i32 noundef 155, i64 noundef 16, ptr noundef null) #8
  %13 = icmp slt i64 %12, 1
  br i1 %13, label %14, label %16

14:                                               ; preds = %11, %8
  %15 = tail call i32 @BIO_free(ptr noundef nonnull %6) #8
  br label %46

16:                                               ; preds = %11
  %17 = icmp eq ptr %0, null
  br i1 %17, label %18, label %23

18:                                               ; preds = %16
  %19 = tail call ptr @SSL_new(ptr noundef nonnull %2) #8
  %20 = icmp eq ptr %19, null
  br i1 %20, label %21, label %24

21:                                               ; preds = %18
  %22 = tail call i32 @BIO_free(ptr noundef nonnull %6) #8
  br label %46

23:                                               ; preds = %16
  tail call void @SSL_set_connect_state(ptr noundef nonnull %0) #8
  br label %24

24:                                               ; preds = %18, %23
  %.021 = phi ptr [ %19, %18 ], [ %0, %23 ]
  tail call void @SSL_set_bio(ptr noundef nonnull %.021, ptr noundef nonnull %6, ptr noundef nonnull %6) #8
  %25 = tail call i32 @SSL_connect(ptr noundef nonnull %.021) #8
  %26 = icmp slt i32 %25, 1
  br i1 %26, label %27, label %39

27:                                               ; preds = %24
  %28 = load ptr, ptr @bio_err, align 8, !tbaa !6
  %29 = tail call i32 (ptr, ptr, ...) @BIO_printf(ptr noundef %28, ptr noundef nonnull @.str.71) #8
  %30 = load i32, ptr getelementptr inbounds nuw (i8, ptr @verify_args, i64 8), align 4, !tbaa !19
  %.not = icmp eq i32 %30, 0
  %31 = load ptr, ptr @bio_err, align 8, !tbaa !6
  br i1 %.not, label %36, label %32

32:                                               ; preds = %27
  %33 = sext i32 %30 to i64
  %34 = tail call ptr @X509_verify_cert_error_string(i64 noundef %33) #8
  %35 = tail call i32 (ptr, ptr, ...) @BIO_printf(ptr noundef %31, ptr noundef nonnull @.str.72, ptr noundef %34) #8
  br label %37

36:                                               ; preds = %27
  tail call void @ERR_print_errors(ptr noundef %31) #8
  br label %37

37:                                               ; preds = %36, %32
  br i1 %17, label %38, label %46

38:                                               ; preds = %37
  tail call void @SSL_free(ptr noundef nonnull %.021) #8
  br label %46

39:                                               ; preds = %24
  call void @llvm.lifetime.start.p0(i64 8, ptr nonnull %4) #8
  store i32 1, ptr %4, align 4, !tbaa !20
  %40 = getelementptr inbounds nuw i8, ptr %4, i64 4
  store i32 0, ptr %40, align 4, !tbaa !22
  %41 = tail call i32 @SSL_get_fd(ptr noundef nonnull %.021) #8
  %42 = icmp sgt i32 %41, -1
  br i1 %42, label %43, label %45

43:                                               ; preds = %39
  %44 = call i32 @setsockopt(i32 noundef %41, i32 noundef 1, i32 noundef 13, ptr noundef nonnull %4, i32 noundef 8) #8
  br label %45

45:                                               ; preds = %43, %39
  call void @llvm.lifetime.end.p0(i64 8, ptr nonnull %4) #8
  br label %46

46:                                               ; preds = %37, %38, %3, %45, %21, %14
  %.0 = phi ptr [ null, %14 ], [ null, %21 ], [ %.021, %45 ], [ null, %3 ], [ null, %38 ], [ null, %37 ]
  ret ptr %.0
}